target datalayout = "e-m:e-p270:32:32-p271:32:32-p272:64:64-i64:64-i128:128-f80:128-n8:16:32:64-S128"
target triple = "x86_64-pc-linux-gnu"

%struct.slurm_step_id_msg = type { i64, i32, i32, i32 }
%struct.slurm_msg = type { %struct.sockaddr_storage, ptr, i32, i32, i32, i8, i32, i8, i32, ptr, ptr, i32, ptr, ptr, i16, i8, i16, i16, %struct.forward, ptr, %struct.sockaddr_storage, ptr }
%struct.forward = type { %struct.slurm_node_alias_addrs_t, i16, i16, ptr, i32, i16, i16 }
%struct.slurm_node_alias_addrs_t = type { i64, ptr, ptr, i32, ptr }
%struct.sockaddr_storage = type { i16, [118 x i8], i64 }
%struct.job_notify_msg = type { ptr, %struct.slurm_step_id_msg }

@working_cluster_rec = external global ptr, align 8

; Function Attrs: nounwind uwtable
define dso_local i32 @slurm_notify_job(i32 noundef %0, ptr noundef %1) #0 {
  %3 = alloca i32, align 4
  %4 = alloca i32, align 4
  %5 = alloca ptr, align 8
  %6 = alloca i32, align 4
  %7 = alloca %struct.slurm_msg, align 8
  %8 = alloca %struct.job_notify_msg, align 8
  %9 = alloca i32, align 4
  store i32 %0, ptr %4, align 4
  store ptr %1, ptr %5, align 8
  call void @llvm.lifetime.start.p0(i64 4, ptr %6) #6
  call void @llvm.lifetime.start.p0(i64 424, ptr %7) #6
  call void @llvm.lifetime.start.p0(i64 32, ptr %8) #6
  call void @slurm_msg_t_init(ptr noundef %7)
  call void @llvm.memset.p0.i64(ptr align 8 %8, i8 0, i64 32, i1 false)
  %10 = load i32, ptr %4, align 4
  %11 = getelementptr inbounds nuw %struct.job_notify_msg, ptr %8, i32 0, i32 1
  %12 = getelementptr inbounds nuw %struct.slurm_step_id_msg, ptr %11, i32 0, i32 1
  store i32 %10, ptr %12, align 8
  %13 = getelementptr inbounds nuw %struct.job_notify_msg, ptr %8, i32 0, i32 1
  %14 = getelementptr inbounds nuw %struct.slurm_step_id_msg, ptr %13, i32 0, i32 3
  store i32 -2, ptr %14, align 8
  %15 = getelementptr inbounds nuw %struct.job_notify_msg, ptr %8, i32 0, i32 1
  %16 = getelementptr inbounds nuw %struct.slurm_step_id_msg, ptr %15, i32 0, i32 2
  store i32 -2, ptr %16, align 4
  %17 = load ptr, ptr %5, align 8
  %18 = getelementptr inbounds nuw %struct.job_notify_msg, ptr %8, i32 0, i32 0
  store ptr %17, ptr %18, align 8
  %19 = getelementptr inbounds nuw %struct.slurm_msg, ptr %7, i32 0, i32 16
  store i16 4022, ptr %19, align 4
  %20 = getelementptr inbounds nuw %struct.slurm_msg, ptr %7, i32 0, i32 13
  store ptr %8, ptr %20, align 8
  %21 = load ptr, ptr @working_cluster_rec, align 8
  %22 = call i32 @slurm_send_recv_controller_rc_msg(ptr noundef %7, ptr noundef %6, ptr noundef %21)
  %23 = icmp slt i32 %22, 0
  br i1 %23, label %24, label %25

24:                                               ; preds = %2
  store i32 -1, ptr %3, align 4
  store i32 1, ptr %9, align 4
  br label %38

25:                                               ; preds = %2
  %26 = load i32, ptr %6, align 4
  %27 = icmp ne i32 %26, 0
  br i1 %27, label %28, label %37

28:                                               ; preds = %25
  br label %29

29:                                               ; preds = %28
  %30 = load i32, ptr %6, align 4
  %31 = call ptr @__errno_location() #7
  store i32 %30, ptr %31, align 4
  %32 = load i32, ptr %6, align 4
  %33 = icmp ne i32 %32, 0
  %34 = select i1 %33, i32 -1, i32 0
  store i32 %34, ptr %3, align 4
  store i32 1, ptr %9, align 4
  br label %38

35:                                               ; No predecessors!
  br label %36

36:                                               ; preds = %35
  store i32 -1, ptr %3, align 4
  store i32 1, ptr %9, align 4
  br label %38

37:                                               ; preds = %25
  store i32 0, ptr %3, align 4
  store i32 1, ptr %9, align 4
  br label %38

38:                                               ; preds = %37, %36, %29, %24
  call void @llvm.lifetime.end.p0(i64 32, ptr %8) #6
  call void @llvm.lifetime.end.p0(i64 424, ptr %7) #6
  call void @llvm.lifetime.end.p0(i64 4, ptr %6) #6
  %39 = load i32, ptr %3, align 4
  ret i32 %39
}