; Function Attrs: nounwind uwtable
define dso_local range(i32 -1, 1) i32 @slurm_notify_job(i32 noundef %0, ptr noundef %1) local_unnamed_addr #0 {
  %3 = alloca i32, align 4
  %4 = alloca %struct.slurm_msg, align 8
  %5 = alloca %struct.job_notify_msg, align 8
  call void @llvm.lifetime.start.p0(i64 4, ptr nonnull %3) #6
  call void @llvm.lifetime.start.p0(i64 424, ptr nonnull %4) #6
  call void @llvm.lifetime.start.p0(i64 32, ptr nonnull %5) #6
  call void @slurm_msg_t_init(ptr noundef nonnull %4) #6
  %6 = getelementptr inbounds nuw i8, ptr %5, i64 8
  call void @llvm.memset.p0.i64(ptr noundef nonnull align 8 dereferenceable(32) %6, i8 0, i64 24, i1 false)
  %7 = getelementptr inbounds nuw i8, ptr %5, i64 16
  store i32 %0, ptr %7, align 8
  %8 = getelementptr inbounds nuw i8, ptr %5, i64 24
  store i32 -2, ptr %8, align 8
  %9 = getelementptr inbounds nuw i8, ptr %5, i64 20
  store i32 -2, ptr %9, align 4
  store ptr %1, ptr %5, align 8
  %10 = getelementptr inbounds nuw i8, ptr %4, i64 212
  store i16 4022, ptr %10, align 4
  %11 = getelementptr inbounds nuw i8, ptr %4, i64 200
  store ptr %5, ptr %11, align 8
  %12 = load ptr, ptr @working_cluster_rec, align 8
  %13 = call i32 @slurm_send_recv_controller_rc_msg(ptr noundef nonnull %4, ptr noundef nonnull %3, ptr noundef %12) #6
  %14 = icmp slt i32 %13, 0
  br i1 %14, label %21, label %15

15:                                               ; preds = %2
  %16 = load i32, ptr %3, align 4
  %.not = icmp eq i32 %16, 0
  br i1 %.not, label %21, label %17

17:                                               ; preds = %15
  %18 = tail call ptr @__errno_location() #7
  store i32 %16, ptr %18, align 4
  %19 = load i32, ptr %3, align 4
  %.not3 = icmp ne i32 %19, 0
  %20 = sext i1 %.not3 to i32
  br label %21

21:                                               ; preds = %15, %2, %17
  %.0 = phi i32 [ %20, %17 ], [ -1, %2 ], [ 0, %15 ]
  call void @llvm.lifetime.end.p0(i64 32, ptr nonnull %5) #6
  call void @llvm.lifetime.end.p0(i64 424, ptr nonnull %4) #6
  call void @llvm.lifetime.end.p0(i64 4, ptr nonnull %3) #6
  ret i32 %.0
}